; Function Attrs: mustprogress nounwind uwtable
define dso_local void @_ZN4node10cares_wrap11ChannelWrapC2EPNS_11EnvironmentEN2v85LocalINS4_6ObjectEEEii(ptr noundef nonnull align 8 dereferenceable(144) %this, ptr noundef %env, ptr %object.coerce, i32 noundef %timeout, i32 noundef %tries) unnamed_addr #3 align 2 {
entry:
  tail call void @_ZN4node9AsyncWrapC2EPNS_11EnvironmentEN2v85LocalINS3_6ObjectEEENS0_12ProviderTypeEd(ptr noundef nonnull align 8 dereferenceable(56) %this, ptr noundef %env, ptr %object.coerce, i32 noundef 2, double noundef -1.000000e+00) #20
  store ptr getelementptr inbounds ({ [20 x ptr] }, ptr @_ZTVN4node10cares_wrap11ChannelWrapE, i64 0, i32 0, i64 2), ptr %this, align 8
  %timer_handle_ = getelementptr inbounds i8, ptr %this, i64 56
  %query_last_ok_ = getelementptr inbounds i8, ptr %this, i64 72
  tail call void @llvm.memset.p0.i64(ptr noundef nonnull align 8 dereferenceable(16) %timer_handle_, i8 0, i64 16, i1 false)
  store i8 1, ptr %query_last_ok_, align 8
  %is_servers_default_ = getelementptr inbounds i8, ptr %this, i64 73
  store i8 1, ptr %is_servers_default_, align 1
  %library_inited_ = getelementptr inbounds i8, ptr %this, i64 74
  store i8 0, ptr %library_inited_, align 2
  %timeout_ = getelementptr inbounds i8, ptr %this, i64 76
  store i32 %timeout, ptr %timeout_, align 4
  %tries_ = getelementptr inbounds i8, ptr %this, i64 80
  store i32 %tries, ptr %tries_, align 8
  %active_query_count_ = getelementptr inbounds i8, ptr %this, i64 84
  store i32 0, ptr %active_query_count_, align 4
  %task_list_ = getelementptr inbounds i8, ptr %this, i64 88
  %_M_single_bucket.i.i = getelementptr inbounds i8, ptr %this, i64 136
  store ptr %_M_single_bucket.i.i, ptr %task_list_, align 8
  %_M_bucket_count.i.i = getelementptr inbounds i8, ptr %this, i64 96
  store i64 1, ptr %_M_bucket_count.i.i, align 8
  %_M_before_begin.i.i = getelementptr inbounds i8, ptr %this, i64 104
  %_M_rehash_policy.i.i = getelementptr inbounds i8, ptr %this, i64 120
  tail call void @llvm.memset.p0.i64(ptr noundef nonnull align 8 dereferenceable(16) %_M_before_begin.i.i, i8 0, i64 16, i1 false)
  store float 1.000000e+00, ptr %_M_rehash_policy.i.i, align 8
  %_M_next_resize.i.i.i = getelementptr inbounds i8, ptr %this, i64 128
  tail call void @llvm.memset.p0.i64(ptr noundef nonnull align 8 dereferenceable(16) %_M_next_resize.i.i.i, i8 0, i64 16, i1 false)
  tail call void @_ZN4node10BaseObject8MakeWeakEv(ptr noundef nonnull align 8 dereferenceable(32) %this) #20
  tail call void @_ZN4node10cares_wrap11ChannelWrap5SetupEv(ptr noundef nonnull align 8 dereferenceable(144) %this)
  ret void
}